target datalayout = "e-m:e-p270:32:32-p271:32:32-p272:64:64-i64:64-i128:128-f80:128-n8:16:32:64-S128"
target triple = "x86_64-pc-linux-gnu"

%struct.cbuf = type { %union.pthread_mutex_t, i32, i32, i32, i32, i32, i32, i32, i32, i32, i32, ptr }
%union.pthread_mutex_t = type { %struct.__pthread_mutex_s }
%struct.__pthread_mutex_s = type { i32, i32, i32, i32, i32, i16, i16, %struct.__pthread_internal_list }
%struct.__pthread_internal_list = type { ptr, ptr }

@.str.2 = private unnamed_addr constant [29 x i8] c"%s: pthread_mutex_lock(): %m\00", align 1
@.str.3 = private unnamed_addr constant [31 x i8] c"%s: pthread_mutex_unlock(): %m\00", align 1
@__func__.cbuf_peek_line = private unnamed_addr constant [15 x i8] c"cbuf_peek_line\00", align 1

; Function Attrs: nounwind uwtable
define internal i32 @cbuf_reader(ptr noundef %0, i32 noundef %1, ptr noundef %2, ptr noundef %3) #0 {
  %5 = alloca i32, align 4
  %6 = alloca ptr, align 8
  %7 = alloca i32, align 4
  %8 = alloca ptr, align 8
  %9 = alloca ptr, align 8
  %10 = alloca i32, align 4
  %11 = alloca i32, align 4
  %12 = alloca i32, align 4
  %13 = alloca i32, align 4
  %14 = alloca i32, align 4
  store ptr %0, ptr %6, align 8
  store i32 %1, ptr %7, align 4
  store ptr %2, ptr %8, align 8
  store ptr %3, ptr %9, align 8
  call void @llvm.lifetime.start.p0(i64 4, ptr %10) #8
  call void @llvm.lifetime.start.p0(i64 4, ptr %11) #8
  call void @llvm.lifetime.start.p0(i64 4, ptr %12) #8
  call void @llvm.lifetime.start.p0(i64 4, ptr %13) #8
  %15 = load i32, ptr %7, align 4
  %16 = load ptr, ptr %6, align 8
  %17 = getelementptr inbounds nuw %struct.cbuf, ptr %16, i32 0, i32 5
  %18 = load i32, ptr %17, align 8
  %19 = icmp slt i32 %15, %18
  br i1 %19, label %20, label %22

20:                                               ; preds = %4
  %21 = load i32, ptr %7, align 4
  br label %26

22:                                               ; preds = %4
  %23 = load ptr, ptr %6, align 8
  %24 = getelementptr inbounds nuw %struct.cbuf, ptr %23, i32 0, i32 5
  %25 = load i32, ptr %24, align 8
  br label %26

26:                                               ; preds = %22, %20
  %27 = phi i32 [ %21, %20 ], [ %25, %22 ]
  store i32 %27, ptr %7, align 4
  %28 = load i32, ptr %7, align 4
  %29 = icmp eq i32 %28, 0
  br i1 %29, label %30, label %31

30:                                               ; preds = %26
  store i32 0, ptr %5, align 4
  store i32 1, ptr %14, align 4
  br label %99

31:                                               ; preds = %26
  %32 = load ptr, ptr %6, align 8
  %33 = getelementptr inbounds nuw %struct.cbuf, ptr %32, i32 0, i32 9
  %34 = load i32, ptr %33, align 8
  store i32 %34, ptr %13, align 4
  %35 = load i32, ptr %7, align 4
  store i32 %35, ptr %10, align 4
  store i32 0, ptr %12, align 4
  br label %36

36:                                               ; preds = %88, %31
  %37 = load i32, ptr %10, align 4
  %38 = icmp sgt i32 %37, 0
  br i1 %38, label %39, label %89

39:                                               ; preds = %36
  %40 = load i32, ptr %10, align 4
  %41 = load ptr, ptr %6, align 8
  %42 = getelementptr inbounds nuw %struct.cbuf, ptr %41, i32 0, i32 4
  %43 = load i32, ptr %42, align 4
  %44 = add nsw i32 %43, 1
  %45 = load i32, ptr %13, align 4
  %46 = sub nsw i32 %44, %45
  %47 = icmp slt i32 %40, %46
  br i1 %47, label %48, label %50

48:                                               ; preds = %39
  %49 = load i32, ptr %10, align 4
  br label %57

50:                                               ; preds = %39
  %51 = load ptr, ptr %6, align 8
  %52 = getelementptr inbounds nuw %struct.cbuf, ptr %51, i32 0, i32 4
  %53 = load i32, ptr %52, align 4
  %54 = add nsw i32 %53, 1
  %55 = load i32, ptr %13, align 4
  %56 = sub nsw i32 %54, %55
  br label %57

57:                                               ; preds = %50, %48
  %58 = phi i32 [ %49, %48 ], [ %56, %50 ]
  store i32 %58, ptr %11, align 4
  %59 = load ptr, ptr %8, align 8
  %60 = load ptr, ptr %6, align 8
  %61 = getelementptr inbounds nuw %struct.cbuf, ptr %60, i32 0, i32 11
  %62 = load ptr, ptr %61, align 8
  %63 = load i32, ptr %13, align 4
  %64 = sext i32 %63 to i64
  %65 = getelementptr inbounds i8, ptr %62, i64 %64
  %66 = load ptr, ptr %9, align 8
  %67 = load i32, ptr %11, align 4
  %68 = call i32 %59(ptr noundef %65, ptr noundef %66, i32 noundef %67)
  store i32 %68, ptr %12, align 4
  %69 = load i32, ptr %12, align 4
  %70 = icmp sgt i32 %69, 0
  br i1 %70, label %71, label %83

71:                                               ; preds = %57
  %72 = load i32, ptr %12, align 4
  %73 = load i32, ptr %10, align 4
  %74 = sub nsw i32 %73, %72
  store i32 %74, ptr %10, align 4
  %75 = load i32, ptr %13, align 4
  %76 = load i32, ptr %12, align 4
  %77 = add nsw i32 %75, %76
  %78 = load ptr, ptr %6, align 8
  %79 = getelementptr inbounds nuw %struct.cbuf, ptr %78, i32 0, i32 4
  %80 = load i32, ptr %79, align 4
  %81 = add nsw i32 %80, 1
  %82 = srem i32 %77, %81
  store i32 %82, ptr %13, align 4
  br label %83

83:                                               ; preds = %71, %57
  %84 = load i32, ptr %11, align 4
  %85 = load i32, ptr %12, align 4
  %86 = icmp ne i32 %84, %85
  br i1 %86, label %87, label %88

87:                                               ; preds = %83
  br label %89

88:                                               ; preds = %83
  br label %36, !llvm.loop !12

89:                                               ; preds = %87, %36
  %90 = load i32, ptr %7, align 4
  %91 = load i32, ptr %10, align 4
  %92 = sub nsw i32 %90, %91
  store i32 %92, ptr %11, align 4
  %93 = load i32, ptr %11, align 4
  %94 = icmp eq i32 %93, 0
  br i1 %94, label %95, label %97

95:                                               ; preds = %89
  %96 = load i32, ptr %12, align 4
  store i32 %96, ptr %5, align 4
  store i32 1, ptr %14, align 4
  br label %99

97:                                               ; preds = %89
  %98 = load i32, ptr %11, align 4
  store i32 %98, ptr %5, align 4
  store i32 1, ptr %14, align 4
  br label %99

99:                                               ; preds = %97, %95, %30
  call void @llvm.lifetime.end.p0(i64 4, ptr %13) #8
  call void @llvm.lifetime.end.p0(i64 4, ptr %12) #8
  call void @llvm.lifetime.end.p0(i64 4, ptr %11) #8
  call void @llvm.lifetime.end.p0(i64 4, ptr %10) #8
  %100 = load i32, ptr %5, align 4
  ret i32 %100
}

; Function Attrs: nounwind uwtable
define internal i32 @cbuf_find_unread_line(ptr noundef %0, i32 noundef %1, ptr noundef %2) #0 {
  %4 = alloca i32, align 4
  %5 = alloca ptr, align 8
  %6 = alloca i32, align 4
  %7 = alloca ptr, align 8
  %8 = alloca i32, align 4
  %9 = alloca i32, align 4
  %10 = alloca i32, align 4
  %11 = alloca i32, align 4
  %12 = alloca i32, align 4
  %13 = alloca i32, align 4
  store ptr %0, ptr %5, align 8
  store i32 %1, ptr %6, align 4
  store ptr %2, ptr %7, align 8
  call void @llvm.lifetime.start.p0(i64 4, ptr %8) #8
  call void @llvm.lifetime.start.p0(i64 4, ptr %9) #8
  call void @llvm.lifetime.start.p0(i64 4, ptr %10) #8
  call void @llvm.lifetime.start.p0(i64 4, ptr %11) #8
  call void @llvm.lifetime.start.p0(i64 4, ptr %12) #8
  store i32 0, ptr %11, align 4
  store i32 0, ptr %10, align 4
  store i32 0, ptr %9, align 4
  %14 = load ptr, ptr %7, align 8
  %15 = load i32, ptr %14, align 4
  store i32 %15, ptr %12, align 4
  %16 = load ptr, ptr %7, align 8
  store i32 0, ptr %16, align 4
  %17 = load i32, ptr %12, align 4
  %18 = icmp eq i32 %17, 0
  br i1 %18, label %25, label %19

19:                                               ; preds = %3
  %20 = load i32, ptr %12, align 4
  %21 = icmp sle i32 %20, -1
  br i1 %21, label %22, label %26

22:                                               ; preds = %19
  %23 = load i32, ptr %6, align 4
  %24 = icmp sle i32 %23, 0
  br i1 %24, label %25, label %26

25:                                               ; preds = %22, %3
  store i32 0, ptr %4, align 4
  store i32 1, ptr %13, align 4
  br label %97

26:                                               ; preds = %22, %19
  %27 = load ptr, ptr %5, align 8
  %28 = getelementptr inbounds nuw %struct.cbuf, ptr %27, i32 0, i32 5
  %29 = load i32, ptr %28, align 8
  %30 = icmp eq i32 %29, 0
  br i1 %30, label %31, label %32

31:                                               ; preds = %26
  store i32 0, ptr %4, align 4
  store i32 1, ptr %13, align 4
  br label %97

32:                                               ; preds = %26
  %33 = load i32, ptr %12, align 4
  %34 = icmp sgt i32 %33, 0
  br i1 %34, label %35, label %36

35:                                               ; preds = %32
  store i32 -1, ptr %6, align 4
  br label %36

36:                                               ; preds = %35, %32
  %37 = load ptr, ptr %5, align 8
  %38 = getelementptr inbounds nuw %struct.cbuf, ptr %37, i32 0, i32 9
  %39 = load i32, ptr %38, align 8
  store i32 %39, ptr %8, align 4
  br label %40

40:                                               ; preds = %81, %36
  %41 = load i32, ptr %8, align 4
  %42 = load ptr, ptr %5, align 8
  %43 = getelementptr inbounds nuw %struct.cbuf, ptr %42, i32 0, i32 8
  %44 = load i32, ptr %43, align 4
  %45 = icmp ne i32 %41, %44
  br i1 %45, label %46, label %89

46:                                               ; preds = %40
  %47 = load i32, ptr %9, align 4
  %48 = add nsw i32 %47, 1
  store i32 %48, ptr %9, align 4
  %49 = load i32, ptr %6, align 4
  %50 = icmp sgt i32 %49, 0
  br i1 %50, label %51, label %54

51:                                               ; preds = %46
  %52 = load i32, ptr %6, align 4
  %53 = add nsw i32 %52, -1
  store i32 %53, ptr %6, align 4
  br label %54

54:                                               ; preds = %51, %46
  %55 = load ptr, ptr %5, align 8
  %56 = getelementptr inbounds nuw %struct.cbuf, ptr %55, i32 0, i32 11
  %57 = load ptr, ptr %56, align 8
  %58 = load i32, ptr %8, align 4
  %59 = sext i32 %58 to i64
  %60 = getelementptr inbounds i8, ptr %57, i64 %59
  %61 = load i8, ptr %60, align 1
  %62 = zext i8 %61 to i32
  %63 = icmp eq i32 %62, 10
  br i1 %63, label %64, label %74

64:                                               ; preds = %54
  %65 = load i32, ptr %12, align 4
  %66 = icmp sgt i32 %65, 0
  br i1 %66, label %67, label %70

67:                                               ; preds = %64
  %68 = load i32, ptr %12, align 4
  %69 = add nsw i32 %68, -1
  store i32 %69, ptr %12, align 4
  br label %70

70:                                               ; preds = %67, %64
  %71 = load i32, ptr %9, align 4
  store i32 %71, ptr %10, align 4
  %72 = load i32, ptr %11, align 4
  %73 = add nsw i32 %72, 1
  store i32 %73, ptr %11, align 4
  br label %74

74:                                               ; preds = %70, %54
  %75 = load i32, ptr %6, align 4
  %76 = icmp eq i32 %75, 0
  br i1 %76, label %80, label %77

77:                                               ; preds = %74
  %78 = load i32, ptr %12, align 4
  %79 = icmp eq i32 %78, 0
  br i1 %79, label %80, label %81

80:                                               ; preds = %77, %74
  br label %89

81:                                               ; preds = %77
  %82 = load i32, ptr %8, align 4
  %83 = add nsw i32 %82, 1
  %84 = load ptr, ptr %5, align 8
  %85 = getelementptr inbounds nuw %struct.cbuf, ptr %84, i32 0, i32 4
  %86 = load i32, ptr %85, align 4
  %87 = add nsw i32 %86, 1
  %88 = srem i32 %83, %87
  store i32 %88, ptr %8, align 4
  br label %40, !llvm.loop !8

89:                                               ; preds = %80, %40
  %90 = load i32, ptr %12, align 4
  %91 = icmp sgt i32 %90, 0
  br i1 %91, label %92, label %93

92:                                               ; preds = %89
  store i32 0, ptr %4, align 4
  store i32 1, ptr %13, align 4
  br label %97

93:                                               ; preds = %89
  %94 = load i32, ptr %11, align 4
  %95 = load ptr, ptr %7, align 8
  store i32 %94, ptr %95, align 4
  %96 = load i32, ptr %10, align 4
  store i32 %96, ptr %4, align 4
  store i32 1, ptr %13, align 4
  br label %97

97:                                               ; preds = %93, %92, %31, %25
  call void @llvm.lifetime.end.p0(i64 4, ptr %12) #8
  call void @llvm.lifetime.end.p0(i64 4, ptr %11) #8
  call void @llvm.lifetime.end.p0(i64 4, ptr %10) #8
  call void @llvm.lifetime.end.p0(i64 4, ptr %9) #8
  call void @llvm.lifetime.end.p0(i64 4, ptr %8) #8
  %98 = load i32, ptr %4, align 4
  ret i32 %98
}

; Function Attrs: nounwind uwtable
define dso_local i32 @cbuf_peek_line(ptr noundef %0, ptr noundef %1, i32 noundef %2, i32 noundef %3) #0 {
  %5 = alloca i32, align 4
  %6 = alloca ptr, align 8
  %7 = alloca ptr, align 8
  %8 = alloca i32, align 4
  %9 = alloca i32, align 4
  %10 = alloca i32, align 4
  %11 = alloca i32, align 4
  %12 = alloca i32, align 4
  %13 = alloca ptr, align 8
  %14 = alloca i32, align 4
  %15 = alloca i32, align 4
  %16 = alloca i32, align 4
  store ptr %0, ptr %6, align 8
  store ptr %1, ptr %7, align 8
  store i32 %2, ptr %8, align 4
  store i32 %3, ptr %9, align 4
  call void @llvm.lifetime.start.p0(i64 4, ptr %10) #8
  call void @llvm.lifetime.start.p0(i64 4, ptr %11) #8
  call void @llvm.lifetime.start.p0(i64 4, ptr %12) #8
  call void @llvm.lifetime.start.p0(i64 8, ptr %13) #8
  %17 = load ptr, ptr %7, align 8
  %18 = icmp eq ptr %17, null
  br i1 %18, label %25, label %19

19:                                               ; preds = %4
  %20 = load i32, ptr %8, align 4
  %21 = icmp slt i32 %20, 0
  br i1 %21, label %25, label %22

22:                                               ; preds = %19
  %23 = load i32, ptr %9, align 4
  %24 = icmp slt i32 %23, -1
  br i1 %24, label %25, label %27

25:                                               ; preds = %22, %19, %4
  %26 = call ptr @__errno_location() #9
  store i32 22, ptr %26, align 4
  store i32 -1, ptr %5, align 4
  store i32 1, ptr %14, align 4
  br label %96

27:                                               ; preds = %22
  %28 = load i32, ptr %9, align 4
  %29 = icmp eq i32 %28, 0
  br i1 %29, label %30, label %31

30:                                               ; preds = %27
  store i32 0, ptr %5, align 4
  store i32 1, ptr %14, align 4
  br label %96

31:                                               ; preds = %27
  br label %32

32:                                               ; preds = %31
  call void @llvm.lifetime.start.p0(i64 4, ptr %15) #8
  %33 = load ptr, ptr %6, align 8
  %34 = getelementptr inbounds nuw %struct.cbuf, ptr %33, i32 0, i32 0
  %35 = call i32 @pthread_mutex_lock(ptr noundef %34) #8
  store i32 %35, ptr %15, align 4
  %36 = load i32, ptr %15, align 4
  %37 = icmp ne i32 %36, 0
  br i1 %37, label %38, label %41

38:                                               ; preds = %32
  %39 = load i32, ptr %15, align 4
  %40 = call ptr @__errno_location() #9
  store i32 %39, ptr %40, align 4
  call void (ptr, ...) @fatal_abort(ptr noundef @.str.2, ptr noundef @__func__.cbuf_peek_line) #10
  unreachable

41:                                               ; preds = %32
  call void @llvm.lifetime.end.p0(i64 4, ptr %15) #8
  br label %42

42:                                               ; preds = %41
  br label %43

43:                                               ; preds = %42
  %44 = load ptr, ptr %6, align 8
  %45 = load i32, ptr %8, align 4
  %46 = sub nsw i32 %45, 1
  %47 = call i32 @cbuf_find_unread_line(ptr noundef %44, i32 noundef %46, ptr noundef %9)
  store i32 %47, ptr %10, align 4
  %48 = load i32, ptr %10, align 4
  %49 = icmp sgt i32 %48, 0
  br i1 %49, label %50, label %82

50:                                               ; preds = %43
  %51 = load i32, ptr %8, align 4
  %52 = icmp sgt i32 %51, 0
  br i1 %52, label %53, label %81

53:                                               ; preds = %50
  %54 = load i32, ptr %10, align 4
  %55 = load i32, ptr %8, align 4
  %56 = sub nsw i32 %55, 1
  %57 = icmp slt i32 %54, %56
  br i1 %57, label %58, label %60

58:                                               ; preds = %53
  %59 = load i32, ptr %10, align 4
  br label %63

60:                                               ; preds = %53
  %61 = load i32, ptr %8, align 4
  %62 = sub nsw i32 %61, 1
  br label %63

63:                                               ; preds = %60, %58
  %64 = phi i32 [ %59, %58 ], [ %62, %60 ]
  store i32 %64, ptr %11, align 4
  %65 = load i32, ptr %11, align 4
  %66 = icmp sgt i32 %65, 0
  br i1 %66, label %67, label %76

67:                                               ; preds = %63
  %68 = load ptr, ptr %7, align 8
  store ptr %68, ptr %13, align 8
  %69 = load ptr, ptr %6, align 8
  %70 = load i32, ptr %11, align 4
  %71 = call i32 @cbuf_reader(ptr noundef %69, i32 noundef %70, ptr noundef @cbuf_put_mem, ptr noundef %13)
  store i32 %71, ptr %12, align 4
  %72 = load i32, ptr %12, align 4
  %73 = icmp ne i32 %72, 0
  br i1 %73, label %74, label %75

74:                                               ; preds = %67
  br label %75

75:                                               ; preds = %74, %67
  br label %76

76:                                               ; preds = %75, %63
  %77 = load ptr, ptr %7, align 8
  %78 = load i32, ptr %11, align 4
  %79 = sext i32 %78 to i64
  %80 = getelementptr inbounds i8, ptr %77, i64 %79
  store i8 0, ptr %80, align 1
  br label %81

81:                                               ; preds = %76, %50
  br label %82

82:                                               ; preds = %81, %43
  br label %83

83:                                               ; preds = %82
  call void @llvm.lifetime.start.p0(i64 4, ptr %16) #8
  %84 = load ptr, ptr %6, align 8
  %85 = getelementptr inbounds nuw %struct.cbuf, ptr %84, i32 0, i32 0
  %86 = call i32 @pthread_mutex_unlock(ptr noundef %85) #8
  store i32 %86, ptr %16, align 4
  %87 = load i32, ptr %16, align 4
  %88 = icmp ne i32 %87, 0
  br i1 %88, label %89, label %92

89:                                               ; preds = %83
  %90 = load i32, ptr %16, align 4
  %91 = call ptr @__errno_location() #9
  store i32 %90, ptr %91, align 4
  call void (ptr, ...) @fatal_abort(ptr noundef @.str.3, ptr noundef @__func__.cbuf_peek_line) #10
  unreachable

92:                                               ; preds = %83
  call void @llvm.lifetime.end.p0(i64 4, ptr %16) #8
  br label %93

93:                                               ; preds = %92
  br label %94

94:                                               ; preds = %93
  %95 = load i32, ptr %10, align 4
  store i32 %95, ptr %5, align 4
  store i32 1, ptr %14, align 4
  br label %96

96:                                               ; preds = %94, %30, %25
  call void @llvm.lifetime.end.p0(i64 8, ptr %13) #8
  call void @llvm.lifetime.end.p0(i64 4, ptr %12) #8
  call void @llvm.lifetime.end.p0(i64 4, ptr %11) #8
  call void @llvm.lifetime.end.p0(i64 4, ptr %10) #8
  %97 = load i32, ptr %5, align 4
  ret i32 %97
}