; Function Attrs: nounwind uwtable
define dso_local i32 @cbuf_peek_line(ptr noundef %0, ptr noundef writeonly captures(address_is_null) %1, i32 noundef %2, i32 noundef %3) local_unnamed_addr #0 {
  %5 = icmp eq ptr %1, null
  %6 = icmp slt i32 %2, 0
  %or.cond = or i1 %5, %6
  %7 = icmp slt i32 %3, -1
  %or.cond3 = or i1 %or.cond, %7
  br i1 %or.cond3, label %8, label %10

8:                                                ; preds = %4
  %9 = tail call ptr @__errno_location() #14
  store i32 22, ptr %9, align 4
  br label %80

10:                                               ; preds = %4
  %11 = icmp eq i32 %3, 0
  br i1 %11, label %80, label %12

12:                                               ; preds = %10
  %13 = tail call i32 @pthread_mutex_lock(ptr noundef %0) #15
  %.not = icmp eq i32 %13, 0
  br i1 %.not, label %16, label %14

14:                                               ; preds = %12
  %15 = tail call ptr @__errno_location() #14
  store i32 %13, ptr %15, align 4
  tail call void (ptr, ...) @fatal_abort(ptr noundef nonnull @.str.2, ptr noundef nonnull @__func__.cbuf_peek_line) #16
  unreachable

16:                                               ; preds = %12
  %17 = add nsw i32 %2, -1
  %18 = icmp slt i32 %3, 0
  %19 = icmp samesign ult i32 %2, 2
  %or.cond.i = and i1 %19, %18
  br i1 %or.cond.i, label %cbuf_find_unread_line.exit.thread, label %20

20:                                               ; preds = %16
  %21 = getelementptr inbounds nuw i8, ptr %0, i64 56
  %22 = load i32, ptr %21, align 8
  %23 = icmp eq i32 %22, 0
  br i1 %23, label %cbuf_find_unread_line.exit.thread, label %24

24:                                               ; preds = %20
  %25 = getelementptr inbounds nuw i8, ptr %0, i64 72
  %26 = load i32, ptr %25, align 8
  %27 = getelementptr inbounds nuw i8, ptr %0, i64 68
  %28 = load i32, ptr %27, align 4
  %.not45.i = icmp eq i32 %26, %28
  br i1 %.not45.i, label %._crit_edge.i, label %.lr.ph.i

.lr.ph.i:                                         ; preds = %24
  %29 = icmp sgt i32 %3, 0
  %spec.select.i = select i1 %29, i32 -1, i32 %17
  %30 = getelementptr inbounds nuw i8, ptr %0, i64 80
  %31 = load ptr, ptr %30, align 8
  %32 = getelementptr inbounds nuw i8, ptr %0, i64 52
  br label %33

33:                                               ; preds = %44, %.lr.ph.i
  %.051.i = phi i32 [ %3, %.lr.ph.i ], [ %.2.i, %44 ]
  %.03349.i = phi i32 [ 0, %.lr.ph.i ], [ %.235.i, %44 ]
  %.03648.i = phi i32 [ 0, %.lr.ph.i ], [ %34, %44 ]
  %.03747.i = phi i32 [ %26, %.lr.ph.i ], [ %48, %44 ]
  %.14046.i = phi i32 [ %spec.select.i, %.lr.ph.i ], [ %spec.select43.i, %44 ]
  %34 = add nuw nsw i32 %.03648.i, 1
  %35 = icmp sgt i32 %.14046.i, 0
  %36 = sext i1 %35 to i32
  %spec.select43.i = add nsw i32 %.14046.i, %36
  %37 = sext i32 %.03747.i to i64
  %38 = getelementptr inbounds i8, ptr %31, i64 %37
  %39 = load i8, ptr %38, align 1
  %40 = icmp eq i8 %39, 10
  %41 = icmp sgt i32 %.051.i, 0
  %.235.i = select i1 %40, i32 %34, i32 %.03349.i
  %narrow.i = select i1 %40, i1 %41, i1 false
  %spec.select44.i = sext i1 %narrow.i to i32
  %.2.i = add nsw i32 %.051.i, %spec.select44.i
  %42 = icmp eq i32 %spec.select43.i, 0
  %43 = icmp eq i32 %.2.i, 0
  %or.cond3.i = select i1 %42, i1 true, i1 %43
  br i1 %or.cond3.i, label %._crit_edge.i, label %44

44:                                               ; preds = %33
  %45 = add nsw i32 %.03747.i, 1
  %46 = load i32, ptr %32, align 4
  %47 = add nsw i32 %46, 1
  %48 = srem i32 %45, %47
  %.not.i = icmp eq i32 %48, %28
  br i1 %.not.i, label %._crit_edge.i, label %33, !llvm.loop !8

._crit_edge.i:                                    ; preds = %44, %33, %24
  %.134.i = phi i32 [ 0, %24 ], [ %.235.i, %33 ], [ %.235.i, %44 ]
  %.1.i = phi i32 [ %3, %24 ], [ %.2.i, %33 ], [ %.2.i, %44 ]
  %49 = icmp sgt i32 %.1.i, 0
  br i1 %49, label %cbuf_find_unread_line.exit.thread, label %cbuf_find_unread_line.exit

cbuf_find_unread_line.exit:                       ; preds = %._crit_edge.i
  %50 = icmp sgt i32 %.134.i, 0
  %51 = icmp sgt i32 %2, 0
  %or.cond5 = and i1 %51, %50
  br i1 %or.cond5, label %52, label %cbuf_find_unread_line.exit.thread

52:                                               ; preds = %cbuf_find_unread_line.exit
  %53 = tail call i32 @llvm.umin.i32(i32 %.134.i, i32 %17)
  %54 = icmp samesign ugt i32 %2, 1
  %.old1.i = icmp sgt i32 %22, 0
  %or.cond46 = and i1 %54, %.old1.i
  br i1 %or.cond46, label %.preheader.i, label %cbuf_reader.exit

.preheader.i:                                     ; preds = %52
  %55 = tail call i32 @llvm.umin.i32(i32 %53, i32 %22)
  %56 = getelementptr inbounds nuw i8, ptr %0, i64 52
  %57 = getelementptr inbounds nuw i8, ptr %0, i64 80
  br label %58

58:                                               ; preds = %73, %.preheader.i
  %.041 = phi ptr [ %1, %.preheader.i ], [ %65, %73 ]
  %.035.i = phi i32 [ %55, %.preheader.i ], [ %.2.i37, %73 ]
  %.0.i = phi i32 [ %26, %.preheader.i ], [ %.1.i38, %73 ]
  %59 = load i32, ptr %56, align 4
  %reass.sub = sub i32 %59, %.0.i
  %60 = add i32 %reass.sub, 1
  %.035..i = tail call i32 @llvm.smin.i32(i32 %.035.i, i32 %60)
  %61 = load ptr, ptr %57, align 8
  %62 = sext i32 %.0.i to i64
  %63 = getelementptr inbounds i8, ptr %61, i64 %62
  %64 = sext i32 %.035..i to i64
  tail call void @llvm.memcpy.p0.p0.i64(ptr align 1 %.041, ptr readonly align 1 %63, i64 %64, i1 false)
  %65 = getelementptr inbounds i8, ptr %.041, i64 %64
  %66 = icmp sgt i32 %.035..i, 0
  br i1 %66, label %67, label %73

67:                                               ; preds = %58
  %68 = sub nsw i32 %.035.i, %.035..i
  %69 = add nsw i32 %.035..i, %.0.i
  %70 = load i32, ptr %56, align 4
  %71 = add nsw i32 %70, 1
  %72 = srem i32 %69, %71
  br label %73

73:                                               ; preds = %67, %58
  %.2.i37 = phi i32 [ %68, %67 ], [ %.035.i, %58 ]
  %.1.i38 = phi i32 [ %72, %67 ], [ %.0.i, %58 ]
  %74 = icmp sgt i32 %.2.i37, 0
  br i1 %74, label %58, label %cbuf_reader.exit, !llvm.loop !12

cbuf_reader.exit:                                 ; preds = %73, %52
  %75 = zext nneg i32 %53 to i64
  %76 = getelementptr inbounds nuw i8, ptr %1, i64 %75
  store i8 0, ptr %76, align 1
  br label %cbuf_find_unread_line.exit.thread

cbuf_find_unread_line.exit.thread:                ; preds = %._crit_edge.i, %20, %16, %cbuf_find_unread_line.exit, %cbuf_reader.exit
  %.038.i44 = phi i32 [ %.134.i, %cbuf_find_unread_line.exit ], [ %.134.i, %cbuf_reader.exit ], [ 0, %16 ], [ 0, %20 ], [ 0, %._crit_edge.i ]
  %77 = tail call i32 @pthread_mutex_unlock(ptr noundef %0) #15
  %.not36 = icmp eq i32 %77, 0
  br i1 %.not36, label %80, label %78

78:                                               ; preds = %cbuf_find_unread_line.exit.thread
  %79 = tail call ptr @__errno_location() #14
  store i32 %77, ptr %79, align 4
  tail call void (ptr, ...) @fatal_abort(ptr noundef nonnull @.str.3, ptr noundef nonnull @__func__.cbuf_peek_line) #16
  unreachable

80:                                               ; preds = %cbuf_find_unread_line.exit.thread, %10, %8
  %.0 = phi i32 [ -1, %8 ], [ 0, %10 ], [ %.038.i44, %cbuf_find_unread_line.exit.thread ]
  ret i32 %.0
}